target datalayout = "e-m:e-p270:32:32-p271:32:32-p272:64:64-i64:64-i128:128-f80:128-n8:16:32:64-S128"
target triple = "x86_64-pc-linux-gnu"

%struct.rb_data_type_struct = type { ptr, %struct.anon.2, ptr, ptr, i64 }
%struct.anon.2 = type { ptr, ptr, ptr, ptr, [1 x ptr] }
%struct.zstream = type { i64, i64, i64, i64, %struct.z_stream_s, ptr }
%struct.z_stream_s = type { ptr, i32, i64, ptr, i32, i64, ptr, ptr, ptr, ptr, ptr, i32, i64, i64 }
%struct.RString = type { %struct.RBasic, i64, %union.anon }
%struct.RBasic = type { i64, i64 }
%union.anon = type { %struct.anon }
%struct.anon = type { ptr, %union.anon.0 }
%union.anon.0 = type { i64 }

@zstream_data_type = internal constant %struct.rb_data_type_struct { ptr @.str.147, %struct.anon.2 { ptr @zstream_mark, ptr @zstream_free, ptr @zstream_memsize, ptr null, [1 x ptr] zeroinitializer }, ptr null, ptr null, i64 1 }, align 8

; Function Attrs: inlinehint nounwind sspstrong willreturn memory(none) uwtable
define internal i64 @RB_INT2FIX(i64 noundef %0) #5 {
  %2 = alloca i64, align 8
  %3 = alloca i64, align 8
  %4 = alloca i64, align 8
  %5 = alloca i64, align 8
  %6 = alloca i64, align 8
  %7 = alloca i64, align 8
  store i64 %0, ptr %2, align 8, !tbaa !6
  call void @llvm.lifetime.start.p0(i64 8, ptr %3) #23
  %8 = load i64, ptr %2, align 8, !tbaa !6
  store i64 %8, ptr %3, align 8, !tbaa !6
  call void @llvm.lifetime.start.p0(i64 8, ptr %4) #23
  %9 = load i64, ptr %3, align 8, !tbaa !6
  %10 = shl i64 %9, 1
  %11 = add i64 %10, 1
  store i64 %11, ptr %4, align 8, !tbaa !6
  call void @llvm.lifetime.start.p0(i64 8, ptr %5) #23
  %12 = load i64, ptr %4, align 8, !tbaa !6
  store i64 %12, ptr %5, align 8, !tbaa !6
  call void @llvm.lifetime.start.p0(i64 8, ptr %6) #23
  %13 = load i64, ptr %5, align 8, !tbaa !6
  store i64 %13, ptr %6, align 8, !tbaa !6
  call void @llvm.lifetime.start.p0(i64 8, ptr %7) #23
  %14 = load i64, ptr %6, align 8, !tbaa !6
  store i64 %14, ptr %7, align 8, !tbaa !6
  %15 = load i64, ptr %7, align 8, !tbaa !6
  call void @llvm.lifetime.end.p0(i64 8, ptr %7) #23
  call void @llvm.lifetime.end.p0(i64 8, ptr %6) #23
  call void @llvm.lifetime.end.p0(i64 8, ptr %5) #23
  call void @llvm.lifetime.end.p0(i64 8, ptr %4) #23
  call void @llvm.lifetime.end.p0(i64 8, ptr %3) #23
  ret i64 %15
}

; Function Attrs: inlinehint nounwind sspstrong willreturn memory(read) uwtable
define internal i64 @RSTRING_LEN(i64 noundef %0) #6 {
  %2 = alloca i64, align 8
  store i64 %0, ptr %2, align 8, !tbaa !6
  %3 = load i64, ptr %2, align 8, !tbaa !6
  %4 = inttoptr i64 %3 to ptr
  %5 = getelementptr inbounds nuw %struct.RString, ptr %4, i32 0, i32 1
  %6 = load i64, ptr %5, align 8, !tbaa !88
  ret i64 %6
}

; Function Attrs: inlinehint nounwind sspstrong willreturn memory(none) uwtable
define internal zeroext i1 @RB_NIL_P(i64 noundef %0) #5 {
  %2 = alloca i64, align 8
  store i64 %0, ptr %2, align 8, !tbaa !6
  %3 = load i64, ptr %2, align 8, !tbaa !6
  %4 = icmp eq i64 %3, 4
  ret i1 %4
}

; Function Attrs: nounwind sspstrong uwtable
define internal i64 @rb_zstream_avail_in(i64 noundef %0) #0 {
  %2 = alloca i64, align 8
  %3 = alloca ptr, align 8
  store i64 %0, ptr %2, align 8, !tbaa !6
  call void @llvm.lifetime.start.p0(i64 8, ptr %3) #23
  %4 = load i64, ptr %2, align 8, !tbaa !6
  %5 = call ptr @rb_check_typeddata(i64 noundef %4, ptr noundef @zstream_data_type)
  store ptr %5, ptr %3, align 8, !tbaa !21
  %6 = load ptr, ptr %3, align 8, !tbaa !21
  %7 = getelementptr inbounds nuw %struct.zstream, ptr %6, i32 0, i32 2
  %8 = load i64, ptr %7, align 8, !tbaa !28
  %9 = call zeroext i1 @RB_NIL_P(i64 noundef %8) #24
  br i1 %9, label %10, label %11

10:                                               ; preds = %1
  br label %17

11:                                               ; preds = %1
  %12 = load ptr, ptr %3, align 8, !tbaa !21
  %13 = getelementptr inbounds nuw %struct.zstream, ptr %12, i32 0, i32 2
  %14 = load i64, ptr %13, align 8, !tbaa !28
  %15 = call i64 @RSTRING_LEN(i64 noundef %14) #25
  %16 = trunc i64 %15 to i32
  br label %17

17:                                               ; preds = %11, %10
  %18 = phi i32 [ 0, %10 ], [ %16, %11 ]
  %19 = sext i32 %18 to i64
  %20 = call i64 @RB_INT2FIX(i64 noundef %19) #24
  call void @llvm.lifetime.end.p0(i64 8, ptr %3) #23
  ret i64 %20
}