; Function Attrs: nounwind sspstrong uwtable
define internal range(i64 1, 0) i64 @rb_zstream_avail_in(i64 noundef %0) #0 {
  %2 = tail call ptr @rb_check_typeddata(i64 noundef %0, ptr noundef nonnull @zstream_data_type) #18
  %3 = getelementptr inbounds nuw i8, ptr %2, i64 16
  %4 = load i64, ptr %3, align 8, !tbaa !51
  %5 = icmp eq i64 %4, 4
  br i1 %5, label %12, label %6

6:                                                ; preds = %1
  %7 = inttoptr i64 %4 to ptr
  %8 = getelementptr inbounds nuw i8, ptr %7, i64 16
  %9 = load i64, ptr %8, align 8, !tbaa !21
  %sext = shl i64 %9, 32
  %10 = ashr exact i64 %sext, 31
  %11 = or disjoint i64 %10, 1
  br label %12

12:                                               ; preds = %1, %6
  %13 = phi i64 [ %11, %6 ], [ 1, %1 ]
  ret i64 %13
}